; Function Attrs: mustprogress uwtable
define void @_ZN6icu_7512SelectFormat12applyPatternERKNS_13UnicodeStringER10UErrorCode(ptr noundef nonnull align 8 dereferenceable(456) %this, ptr noundef nonnull align 8 dereferenceable(64) %newPattern, ptr noundef nonnull align 4 dereferenceable(4) %status) local_unnamed_addr #1 align 2 {
entry:
  %0 = load i32, ptr %status, align 4
  %cmp.i = icmp slt i32 %0, 1
  br i1 %cmp.i, label %if.end, label %if.end7

if.end:                                           ; preds = %entry
  %msgPattern = getelementptr inbounds i8, ptr %this, i64 328
  %call2 = tail call noundef nonnull align 8 dereferenceable(127) ptr @_ZN6icu_7514MessagePattern16parseSelectStyleERKNS_13UnicodeStringEP11UParseErrorR10UErrorCode(ptr noundef nonnull align 8 dereferenceable(127) %msgPattern, ptr noundef nonnull align 8 dereferenceable(64) %newPattern, ptr noundef null, ptr noundef nonnull align 4 dereferenceable(4) %status)
  %1 = load i32, ptr %status, align 4
  %cmp.i3 = icmp slt i32 %1, 1
  br i1 %cmp.i3, label %if.end7, label %if.then5

if.then5:                                         ; preds = %if.end
  tail call void @_ZN6icu_7514MessagePattern5clearEv(ptr noundef nonnull align 8 dereferenceable(127) %msgPattern)
  br label %if.end7

if.end7:                                          ; preds = %entry, %if.then5, %if.end
  ret void
}